target datalayout = "e-m:e-p270:32:32-p271:32:32-p272:64:64-i64:64-i128:128-f80:128-n8:16:32:64-S128"
target triple = "x86_64-pc-linux-gnu"

%struct.bio_st = type { ptr, ptr, ptr, ptr, ptr, i32, i32, i32, i32, i32, ptr, ptr, ptr, %struct.CRYPTO_REF_COUNT, i64, i64, %struct.crypto_ex_data_st }
%struct.CRYPTO_REF_COUNT = type { i32 }
%struct.crypto_ex_data_st = type { ptr, ptr }
%struct.bio_linebuffer_ctx_struct = type { ptr, i32, i32 }

@.str.2 = private unnamed_addr constant [32 x i8] c"../openssl/crypto/bio/bf_lbuf.c\00", align 1

; Function Attrs: nounwind uwtable
define internal i64 @linebuffer_ctrl(ptr noundef %0, i32 noundef %1, i64 noundef %2, ptr noundef %3) #0 {
  %5 = alloca i64, align 8
  %6 = alloca ptr, align 8
  %7 = alloca i32, align 4
  %8 = alloca i64, align 8
  %9 = alloca ptr, align 8
  %10 = alloca ptr, align 8
  %11 = alloca ptr, align 8
  %12 = alloca i64, align 8
  %13 = alloca ptr, align 8
  %14 = alloca i32, align 4
  %15 = alloca i32, align 4
  %16 = alloca i32, align 4
  store ptr %0, ptr %6, align 8, !tbaa !3
  store i32 %1, ptr %7, align 4, !tbaa !10
  store i64 %2, ptr %8, align 8, !tbaa !32
  store ptr %3, ptr %9, align 8, !tbaa !33
  call void @llvm.lifetime.start.p0(i64 8, ptr %10) #5
  call void @llvm.lifetime.start.p0(i64 8, ptr %11) #5
  call void @llvm.lifetime.start.p0(i64 8, ptr %12) #5
  store i64 1, ptr %12, align 8, !tbaa !32
  call void @llvm.lifetime.start.p0(i64 8, ptr %13) #5
  call void @llvm.lifetime.start.p0(i64 4, ptr %14) #5
  call void @llvm.lifetime.start.p0(i64 4, ptr %15) #5
  %17 = load ptr, ptr %6, align 8, !tbaa !3
  %18 = getelementptr inbounds nuw %struct.bio_st, ptr %17, i32 0, i32 10
  %19 = load ptr, ptr %18, align 8, !tbaa !12
  store ptr %19, ptr %11, align 8, !tbaa !20
  %20 = load i32, ptr %7, align 4, !tbaa !10
  switch i32 %20, label %237 [
    i32 1, label %21
    i32 3, label %37
    i32 13, label %42
    i32 117, label %64
    i32 101, label %125
    i32 11, label %141
    i32 12, label %226
  ]

21:                                               ; preds = %4
  %22 = load ptr, ptr %11, align 8, !tbaa !20
  %23 = getelementptr inbounds nuw %struct.bio_linebuffer_ctx_struct, ptr %22, i32 0, i32 2
  store i32 0, ptr %23, align 4, !tbaa !28
  %24 = load ptr, ptr %6, align 8, !tbaa !3
  %25 = getelementptr inbounds nuw %struct.bio_st, ptr %24, i32 0, i32 11
  %26 = load ptr, ptr %25, align 8, !tbaa !22
  %27 = icmp eq ptr %26, null
  br i1 %27, label %28, label %29

28:                                               ; preds = %21
  store i64 0, ptr %5, align 8
  store i32 1, ptr %16, align 4
  br label %253

29:                                               ; preds = %21
  %30 = load ptr, ptr %6, align 8, !tbaa !3
  %31 = getelementptr inbounds nuw %struct.bio_st, ptr %30, i32 0, i32 11
  %32 = load ptr, ptr %31, align 8, !tbaa !22
  %33 = load i32, ptr %7, align 4, !tbaa !10
  %34 = load i64, ptr %8, align 8, !tbaa !32
  %35 = load ptr, ptr %9, align 8, !tbaa !33
  %36 = call i64 @BIO_ctrl(ptr noundef %32, i32 noundef %33, i64 noundef %34, ptr noundef %35)
  store i64 %36, ptr %12, align 8, !tbaa !32
  br label %251

37:                                               ; preds = %4
  %38 = load ptr, ptr %11, align 8, !tbaa !20
  %39 = getelementptr inbounds nuw %struct.bio_linebuffer_ctx_struct, ptr %38, i32 0, i32 2
  %40 = load i32, ptr %39, align 4, !tbaa !28
  %41 = sext i32 %40 to i64
  store i64 %41, ptr %12, align 8, !tbaa !32
  br label %251

42:                                               ; preds = %4
  %43 = load ptr, ptr %11, align 8, !tbaa !20
  %44 = getelementptr inbounds nuw %struct.bio_linebuffer_ctx_struct, ptr %43, i32 0, i32 2
  %45 = load i32, ptr %44, align 4, !tbaa !28
  %46 = sext i32 %45 to i64
  store i64 %46, ptr %12, align 8, !tbaa !32
  %47 = load i64, ptr %12, align 8, !tbaa !32
  %48 = icmp eq i64 %47, 0
  br i1 %48, label %49, label %63

49:                                               ; preds = %42
  %50 = load ptr, ptr %6, align 8, !tbaa !3
  %51 = getelementptr inbounds nuw %struct.bio_st, ptr %50, i32 0, i32 11
  %52 = load ptr, ptr %51, align 8, !tbaa !22
  %53 = icmp eq ptr %52, null
  br i1 %53, label %54, label %55

54:                                               ; preds = %49
  store i64 0, ptr %5, align 8
  store i32 1, ptr %16, align 4
  br label %253

55:                                               ; preds = %49
  %56 = load ptr, ptr %6, align 8, !tbaa !3
  %57 = getelementptr inbounds nuw %struct.bio_st, ptr %56, i32 0, i32 11
  %58 = load ptr, ptr %57, align 8, !tbaa !22
  %59 = load i32, ptr %7, align 4, !tbaa !10
  %60 = load i64, ptr %8, align 8, !tbaa !32
  %61 = load ptr, ptr %9, align 8, !tbaa !33
  %62 = call i64 @BIO_ctrl(ptr noundef %58, i32 noundef %59, i64 noundef %60, ptr noundef %61)
  store i64 %62, ptr %12, align 8, !tbaa !32
  br label %63

63:                                               ; preds = %55, %42
  br label %251

64:                                               ; preds = %4
  %65 = load i64, ptr %8, align 8, !tbaa !32
  %66 = icmp sgt i64 %65, 2147483647
  br i1 %66, label %67, label %68

67:                                               ; preds = %64
  store i64 0, ptr %5, align 8
  store i32 1, ptr %16, align 4
  br label %253

68:                                               ; preds = %64
  %69 = load i64, ptr %8, align 8, !tbaa !32
  %70 = trunc i64 %69 to i32
  store i32 %70, ptr %15, align 4, !tbaa !10
  %71 = load ptr, ptr %11, align 8, !tbaa !20
  %72 = getelementptr inbounds nuw %struct.bio_linebuffer_ctx_struct, ptr %71, i32 0, i32 0
  %73 = load ptr, ptr %72, align 8, !tbaa !29
  store ptr %73, ptr %13, align 8, !tbaa !8
  %74 = load i32, ptr %15, align 4, !tbaa !10
  %75 = icmp sgt i32 %74, 10240
  br i1 %75, label %76, label %90

76:                                               ; preds = %68
  %77 = load i32, ptr %15, align 4, !tbaa !10
  %78 = load ptr, ptr %11, align 8, !tbaa !20
  %79 = getelementptr inbounds nuw %struct.bio_linebuffer_ctx_struct, ptr %78, i32 0, i32 1
  %80 = load i32, ptr %79, align 8, !tbaa !26
  %81 = icmp ne i32 %77, %80
  br i1 %81, label %82, label %90

82:                                               ; preds = %76
  %83 = load i32, ptr %15, align 4, !tbaa !10
  %84 = sext i32 %83 to i64
  %85 = call noalias ptr @CRYPTO_malloc(i64 noundef %84, ptr noundef @.str.2, i32 noundef 235)
  store ptr %85, ptr %13, align 8, !tbaa !8
  %86 = load ptr, ptr %13, align 8, !tbaa !8
  %87 = icmp eq ptr %86, null
  br i1 %87, label %88, label %89

88:                                               ; preds = %82
  store i64 0, ptr %5, align 8
  store i32 1, ptr %16, align 4
  br label %253

89:                                               ; preds = %82
  br label %90

90:                                               ; preds = %89, %76, %68
  %91 = load ptr, ptr %11, align 8, !tbaa !20
  %92 = getelementptr inbounds nuw %struct.bio_linebuffer_ctx_struct, ptr %91, i32 0, i32 0
  %93 = load ptr, ptr %92, align 8, !tbaa !29
  %94 = load ptr, ptr %13, align 8, !tbaa !8
  %95 = icmp ne ptr %93, %94
  br i1 %95, label %96, label %124

96:                                               ; preds = %90
  %97 = load ptr, ptr %11, align 8, !tbaa !20
  %98 = getelementptr inbounds nuw %struct.bio_linebuffer_ctx_struct, ptr %97, i32 0, i32 2
  %99 = load i32, ptr %98, align 4, !tbaa !28
  %100 = load i32, ptr %15, align 4, !tbaa !10
  %101 = icmp sgt i32 %99, %100
  br i1 %101, label %102, label %106

102:                                              ; preds = %96
  %103 = load i32, ptr %15, align 4, !tbaa !10
  %104 = load ptr, ptr %11, align 8, !tbaa !20
  %105 = getelementptr inbounds nuw %struct.bio_linebuffer_ctx_struct, ptr %104, i32 0, i32 2
  store i32 %103, ptr %105, align 4, !tbaa !28
  br label %106

106:                                              ; preds = %102, %96
  %107 = load ptr, ptr %13, align 8, !tbaa !8
  %108 = load ptr, ptr %11, align 8, !tbaa !20
  %109 = getelementptr inbounds nuw %struct.bio_linebuffer_ctx_struct, ptr %108, i32 0, i32 0
  %110 = load ptr, ptr %109, align 8, !tbaa !29
  %111 = load ptr, ptr %11, align 8, !tbaa !20
  %112 = getelementptr inbounds nuw %struct.bio_linebuffer_ctx_struct, ptr %111, i32 0, i32 2
  %113 = load i32, ptr %112, align 4, !tbaa !28
  %114 = sext i32 %113 to i64
  call void @llvm.memcpy.p0.p0.i64(ptr align 1 %107, ptr align 1 %110, i64 %114, i1 false)
  %115 = load ptr, ptr %11, align 8, !tbaa !20
  %116 = getelementptr inbounds nuw %struct.bio_linebuffer_ctx_struct, ptr %115, i32 0, i32 0
  %117 = load ptr, ptr %116, align 8, !tbaa !29
  call void @CRYPTO_free(ptr noundef %117, ptr noundef @.str.2, i32 noundef 244)
  %118 = load ptr, ptr %13, align 8, !tbaa !8
  %119 = load ptr, ptr %11, align 8, !tbaa !20
  %120 = getelementptr inbounds nuw %struct.bio_linebuffer_ctx_struct, ptr %119, i32 0, i32 0
  store ptr %118, ptr %120, align 8, !tbaa !29
  %121 = load i32, ptr %15, align 4, !tbaa !10
  %122 = load ptr, ptr %11, align 8, !tbaa !20
  %123 = getelementptr inbounds nuw %struct.bio_linebuffer_ctx_struct, ptr %122, i32 0, i32 1
  store i32 %121, ptr %123, align 8, !tbaa !26
  br label %124

124:                                              ; preds = %106, %90
  br label %251

125:                                              ; preds = %4
  %126 = load ptr, ptr %6, align 8, !tbaa !3
  %127 = getelementptr inbounds nuw %struct.bio_st, ptr %126, i32 0, i32 11
  %128 = load ptr, ptr %127, align 8, !tbaa !22
  %129 = icmp eq ptr %128, null
  br i1 %129, label %130, label %131

130:                                              ; preds = %125
  store i64 0, ptr %5, align 8
  store i32 1, ptr %16, align 4
  br label %253

131:                                              ; preds = %125
  %132 = load ptr, ptr %6, align 8, !tbaa !3
  call void @BIO_clear_flags(ptr noundef %132, i32 noundef 15)
  %133 = load ptr, ptr %6, align 8, !tbaa !3
  %134 = getelementptr inbounds nuw %struct.bio_st, ptr %133, i32 0, i32 11
  %135 = load ptr, ptr %134, align 8, !tbaa !22
  %136 = load i32, ptr %7, align 4, !tbaa !10
  %137 = load i64, ptr %8, align 8, !tbaa !32
  %138 = load ptr, ptr %9, align 8, !tbaa !33
  %139 = call i64 @BIO_ctrl(ptr noundef %135, i32 noundef %136, i64 noundef %137, ptr noundef %138)
  store i64 %139, ptr %12, align 8, !tbaa !32
  %140 = load ptr, ptr %6, align 8, !tbaa !3
  call void @BIO_copy_next_retry(ptr noundef %140)
  br label %251

141:                                              ; preds = %4
  %142 = load ptr, ptr %6, align 8, !tbaa !3
  %143 = getelementptr inbounds nuw %struct.bio_st, ptr %142, i32 0, i32 11
  %144 = load ptr, ptr %143, align 8, !tbaa !22
  %145 = icmp eq ptr %144, null
  br i1 %145, label %146, label %147

146:                                              ; preds = %141
  store i64 0, ptr %5, align 8
  store i32 1, ptr %16, align 4
  br label %253

147:                                              ; preds = %141
  %148 = load ptr, ptr %11, align 8, !tbaa !20
  %149 = getelementptr inbounds nuw %struct.bio_linebuffer_ctx_struct, ptr %148, i32 0, i32 2
  %150 = load i32, ptr %149, align 4, !tbaa !28
  %151 = icmp sle i32 %150, 0
  br i1 %151, label %152, label %161

152:                                              ; preds = %147
  %153 = load ptr, ptr %6, align 8, !tbaa !3
  %154 = getelementptr inbounds nuw %struct.bio_st, ptr %153, i32 0, i32 11
  %155 = load ptr, ptr %154, align 8, !tbaa !22
  %156 = load i32, ptr %7, align 4, !tbaa !10
  %157 = load i64, ptr %8, align 8, !tbaa !32
  %158 = load ptr, ptr %9, align 8, !tbaa !33
  %159 = call i64 @BIO_ctrl(ptr noundef %155, i32 noundef %156, i64 noundef %157, ptr noundef %158)
  store i64 %159, ptr %12, align 8, !tbaa !32
  %160 = load ptr, ptr %6, align 8, !tbaa !3
  call void @BIO_copy_next_retry(ptr noundef %160)
  br label %251

161:                                              ; preds = %147
  br label %162

162:                                              ; preds = %216, %161
  %163 = load ptr, ptr %6, align 8, !tbaa !3
  call void @BIO_clear_flags(ptr noundef %163, i32 noundef 15)
  %164 = load ptr, ptr %11, align 8, !tbaa !20
  %165 = getelementptr inbounds nuw %struct.bio_linebuffer_ctx_struct, ptr %164, i32 0, i32 2
  %166 = load i32, ptr %165, align 4, !tbaa !28
  %167 = icmp sgt i32 %166, 0
  br i1 %167, label %168, label %213

168:                                              ; preds = %162
  %169 = load ptr, ptr %6, align 8, !tbaa !3
  %170 = getelementptr inbounds nuw %struct.bio_st, ptr %169, i32 0, i32 11
  %171 = load ptr, ptr %170, align 8, !tbaa !22
  %172 = load ptr, ptr %11, align 8, !tbaa !20
  %173 = getelementptr inbounds nuw %struct.bio_linebuffer_ctx_struct, ptr %172, i32 0, i32 0
  %174 = load ptr, ptr %173, align 8, !tbaa !29
  %175 = load ptr, ptr %11, align 8, !tbaa !20
  %176 = getelementptr inbounds nuw %struct.bio_linebuffer_ctx_struct, ptr %175, i32 0, i32 2
  %177 = load i32, ptr %176, align 4, !tbaa !28
  %178 = call i32 @BIO_write(ptr noundef %171, ptr noundef %174, i32 noundef %177)
  store i32 %178, ptr %14, align 4, !tbaa !10
  %179 = load ptr, ptr %6, align 8, !tbaa !3
  call void @BIO_copy_next_retry(ptr noundef %179)
  %180 = load i32, ptr %14, align 4, !tbaa !10
  %181 = icmp sle i32 %180, 0
  br i1 %181, label %182, label %185

182:                                              ; preds = %168
  %183 = load i32, ptr %14, align 4, !tbaa !10
  %184 = sext i32 %183 to i64
  store i64 %184, ptr %5, align 8
  store i32 1, ptr %16, align 4
  br label %253

185:                                              ; preds = %168
  %186 = load i32, ptr %14, align 4, !tbaa !10
  %187 = load ptr, ptr %11, align 8, !tbaa !20
  %188 = getelementptr inbounds nuw %struct.bio_linebuffer_ctx_struct, ptr %187, i32 0, i32 2
  %189 = load i32, ptr %188, align 4, !tbaa !28
  %190 = icmp slt i32 %186, %189
  br i1 %190, label %191, label %207

191:                                              ; preds = %185
  %192 = load ptr, ptr %11, align 8, !tbaa !20
  %193 = getelementptr inbounds nuw %struct.bio_linebuffer_ctx_struct, ptr %192, i32 0, i32 0
  %194 = load ptr, ptr %193, align 8, !tbaa !29
  %195 = load ptr, ptr %11, align 8, !tbaa !20
  %196 = getelementptr inbounds nuw %struct.bio_linebuffer_ctx_struct, ptr %195, i32 0, i32 0
  %197 = load ptr, ptr %196, align 8, !tbaa !29
  %198 = load i32, ptr %14, align 4, !tbaa !10
  %199 = sext i32 %198 to i64
  %200 = getelementptr inbounds i8, ptr %197, i64 %199
  %201 = load ptr, ptr %11, align 8, !tbaa !20
  %202 = getelementptr inbounds nuw %struct.bio_linebuffer_ctx_struct, ptr %201, i32 0, i32 2
  %203 = load i32, ptr %202, align 4, !tbaa !28
  %204 = load i32, ptr %14, align 4, !tbaa !10
  %205 = sub nsw i32 %203, %204
  %206 = sext i32 %205 to i64
  call void @llvm.memmove.p0.p0.i64(ptr align 1 %194, ptr align 1 %200, i64 %206, i1 false)
  br label %207

207:                                              ; preds = %191, %185
  %208 = load i32, ptr %14, align 4, !tbaa !10
  %209 = load ptr, ptr %11, align 8, !tbaa !20
  %210 = getelementptr inbounds nuw %struct.bio_linebuffer_ctx_struct, ptr %209, i32 0, i32 2
  %211 = load i32, ptr %210, align 4, !tbaa !28
  %212 = sub nsw i32 %211, %208
  store i32 %212, ptr %210, align 4, !tbaa !28
  br label %216

213:                                              ; preds = %162
  %214 = load ptr, ptr %11, align 8, !tbaa !20
  %215 = getelementptr inbounds nuw %struct.bio_linebuffer_ctx_struct, ptr %214, i32 0, i32 2
  store i32 0, ptr %215, align 4, !tbaa !28
  br label %217

216:                                              ; preds = %207
  br label %162

217:                                              ; preds = %213
  %218 = load ptr, ptr %6, align 8, !tbaa !3
  %219 = getelementptr inbounds nuw %struct.bio_st, ptr %218, i32 0, i32 11
  %220 = load ptr, ptr %219, align 8, !tbaa !22
  %221 = load i32, ptr %7, align 4, !tbaa !10
  %222 = load i64, ptr %8, align 8, !tbaa !32
  %223 = load ptr, ptr %9, align 8, !tbaa !33
  %224 = call i64 @BIO_ctrl(ptr noundef %220, i32 noundef %221, i64 noundef %222, ptr noundef %223)
  store i64 %224, ptr %12, align 8, !tbaa !32
  %225 = load ptr, ptr %6, align 8, !tbaa !3
  call void @BIO_copy_next_retry(ptr noundef %225)
  br label %251

226:                                              ; preds = %4
  %227 = load ptr, ptr %9, align 8, !tbaa !33
  store ptr %227, ptr %10, align 8, !tbaa !3
  %228 = load ptr, ptr %10, align 8, !tbaa !3
  %229 = load ptr, ptr %11, align 8, !tbaa !20
  %230 = getelementptr inbounds nuw %struct.bio_linebuffer_ctx_struct, ptr %229, i32 0, i32 1
  %231 = load i32, ptr %230, align 8, !tbaa !26
  %232 = sext i32 %231 to i64
  %233 = call i64 @BIO_int_ctrl(ptr noundef %228, i32 noundef 117, i64 noundef %232, i32 noundef 1)
  %234 = icmp sle i64 %233, 0
  br i1 %234, label %235, label %236

235:                                              ; preds = %226
  store i64 0, ptr %12, align 8, !tbaa !32
  br label %236

236:                                              ; preds = %235, %226
  br label %251

237:                                              ; preds = %4
  %238 = load ptr, ptr %6, align 8, !tbaa !3
  %239 = getelementptr inbounds nuw %struct.bio_st, ptr %238, i32 0, i32 11
  %240 = load ptr, ptr %239, align 8, !tbaa !22
  %241 = icmp eq ptr %240, null
  br i1 %241, label %242, label %243

242:                                              ; preds = %237
  store i64 0, ptr %5, align 8
  store i32 1, ptr %16, align 4
  br label %253

243:                                              ; preds = %237
  %244 = load ptr, ptr %6, align 8, !tbaa !3
  %245 = getelementptr inbounds nuw %struct.bio_st, ptr %244, i32 0, i32 11
  %246 = load ptr, ptr %245, align 8, !tbaa !22
  %247 = load i32, ptr %7, align 4, !tbaa !10
  %248 = load i64, ptr %8, align 8, !tbaa !32
  %249 = load ptr, ptr %9, align 8, !tbaa !33
  %250 = call i64 @BIO_ctrl(ptr noundef %246, i32 noundef %247, i64 noundef %248, ptr noundef %249)
  store i64 %250, ptr %12, align 8, !tbaa !32
  br label %251

251:                                              ; preds = %243, %236, %217, %152, %131, %124, %63, %37, %29
  %252 = load i64, ptr %12, align 8, !tbaa !32
  store i64 %252, ptr %5, align 8
  store i32 1, ptr %16, align 4
  br label %253

253:                                              ; preds = %251, %242, %182, %146, %130, %88, %67, %54, %28
  call void @llvm.lifetime.end.p0(i64 4, ptr %15) #5
  call void @llvm.lifetime.end.p0(i64 4, ptr %14) #5
  call void @llvm.lifetime.end.p0(i64 8, ptr %13) #5
  call void @llvm.lifetime.end.p0(i64 8, ptr %12) #5
  call void @llvm.lifetime.end.p0(i64 8, ptr %11) #5
  call void @llvm.lifetime.end.p0(i64 8, ptr %10) #5
  %254 = load i64, ptr %5, align 8
  ret i64 %254
}