; Function Attrs: nounwind uwtable
define internal i64 @linebuffer_ctrl(ptr noundef %0, i32 noundef %1, i64 noundef %2, ptr noundef %3) #2 {
  %5 = getelementptr inbounds nuw i8, ptr %0, i64 64
  %6 = load ptr, ptr %5, align 8, !tbaa !3
  switch i32 %1, label %100 [
    i32 1, label %7
    i32 3, label %14
    i32 13, label %18
    i32 117, label %29
    i32 101, label %52
    i32 11, label %59
    i32 12, label %94
  ]

7:                                                ; preds = %4
  %8 = getelementptr inbounds nuw i8, ptr %6, i64 12
  store i32 0, ptr %8, align 4, !tbaa !23
  %9 = getelementptr inbounds nuw i8, ptr %0, i64 72
  %10 = load ptr, ptr %9, align 8, !tbaa !17
  %11 = icmp eq ptr %10, null
  br i1 %11, label %.thread, label %12

12:                                               ; preds = %7
  %13 = tail call i64 @BIO_ctrl(ptr noundef nonnull %10, i32 noundef 1, i64 noundef %2, ptr noundef %3) #5
  br label %.thread

14:                                               ; preds = %4
  %15 = getelementptr inbounds nuw i8, ptr %6, i64 12
  %16 = load i32, ptr %15, align 4, !tbaa !23
  %17 = sext i32 %16 to i64
  br label %.thread

18:                                               ; preds = %4
  %19 = getelementptr inbounds nuw i8, ptr %6, i64 12
  %20 = load i32, ptr %19, align 4, !tbaa !23
  %21 = sext i32 %20 to i64
  %22 = icmp eq i32 %20, 0
  br i1 %22, label %23, label %.thread

23:                                               ; preds = %18
  %24 = getelementptr inbounds nuw i8, ptr %0, i64 72
  %25 = load ptr, ptr %24, align 8, !tbaa !17
  %26 = icmp eq ptr %25, null
  br i1 %26, label %.thread, label %27

27:                                               ; preds = %23
  %28 = tail call i64 @BIO_ctrl(ptr noundef nonnull %25, i32 noundef 13, i64 noundef %2, ptr noundef %3) #5
  br label %.thread

29:                                               ; preds = %4
  %30 = icmp sgt i64 %2, 2147483647
  br i1 %30, label %.thread, label %31

31:                                               ; preds = %29
  %32 = trunc i64 %2 to i32
  %33 = icmp sgt i32 %32, 10240
  br i1 %33, label %34, label %.thread

34:                                               ; preds = %31
  %35 = getelementptr inbounds nuw i8, ptr %6, i64 8
  %36 = load i32, ptr %35, align 8, !tbaa !21
  %.not = icmp eq i32 %36, %32
  br i1 %.not, label %.thread, label %37

37:                                               ; preds = %34
  %38 = and i64 %2, 2147483647
  %39 = tail call noalias ptr @CRYPTO_malloc(i64 noundef %38, ptr noundef nonnull @.str.2, i32 noundef 235) #5
  %40 = icmp eq ptr %39, null
  br i1 %40, label %.thread, label %41

41:                                               ; preds = %37
  %.pre103 = load ptr, ptr %6, align 8, !tbaa !24
  %.not100 = icmp eq ptr %.pre103, %39
  br i1 %.not100, label %.thread, label %42

42:                                               ; preds = %41
  %43 = getelementptr inbounds nuw i8, ptr %6, i64 12
  %44 = load i32, ptr %43, align 4, !tbaa !23
  %45 = icmp sgt i32 %44, %32
  br i1 %45, label %46, label %47

46:                                               ; preds = %42
  store i32 %32, ptr %43, align 4, !tbaa !23
  br label %47

47:                                               ; preds = %46, %42
  %48 = phi i32 [ %32, %46 ], [ %44, %42 ]
  %49 = sext i32 %48 to i64
  tail call void @llvm.memcpy.p0.p0.i64(ptr nonnull align 1 %39, ptr align 1 %.pre103, i64 %49, i1 false)
  %50 = load ptr, ptr %6, align 8, !tbaa !24
  tail call void @CRYPTO_free(ptr noundef %50, ptr noundef nonnull @.str.2, i32 noundef 244) #5
  store ptr %39, ptr %6, align 8, !tbaa !24
  %51 = getelementptr inbounds nuw i8, ptr %6, i64 8
  store i32 %32, ptr %51, align 8, !tbaa !21
  br label %.thread

52:                                               ; preds = %4
  %53 = getelementptr inbounds nuw i8, ptr %0, i64 72
  %54 = load ptr, ptr %53, align 8, !tbaa !17
  %55 = icmp eq ptr %54, null
  br i1 %55, label %.thread, label %56

56:                                               ; preds = %52
  tail call void @BIO_clear_flags(ptr noundef nonnull %0, i32 noundef 15) #5
  %57 = load ptr, ptr %53, align 8, !tbaa !17
  %58 = tail call i64 @BIO_ctrl(ptr noundef %57, i32 noundef 101, i64 noundef %2, ptr noundef %3) #5
  tail call void @BIO_copy_next_retry(ptr noundef nonnull %0) #5
  br label %.thread

59:                                               ; preds = %4
  %60 = getelementptr inbounds nuw i8, ptr %0, i64 72
  %61 = load ptr, ptr %60, align 8, !tbaa !17
  %62 = icmp eq ptr %61, null
  br i1 %62, label %.thread, label %63

63:                                               ; preds = %59
  %64 = getelementptr inbounds nuw i8, ptr %6, i64 12
  %65 = load i32, ptr %64, align 4, !tbaa !23
  %66 = icmp slt i32 %65, 1
  br i1 %66, label %69, label %.preheader

.preheader:                                       ; preds = %63
  tail call void @BIO_clear_flags(ptr noundef nonnull %0, i32 noundef 15) #5
  %67 = load i32, ptr %64, align 4, !tbaa !23
  %68 = icmp sgt i32 %67, 0
  br i1 %68, label %.lr.ph, label %._crit_edge

69:                                               ; preds = %63
  %70 = tail call i64 @BIO_ctrl(ptr noundef nonnull %61, i32 noundef 11, i64 noundef %2, ptr noundef %3) #5
  tail call void @BIO_copy_next_retry(ptr noundef nonnull %0) #5
  br label %.thread

.lr.ph:                                           ; preds = %.preheader, %87
  %71 = phi i32 [ %90, %87 ], [ %67, %.preheader ]
  %72 = load ptr, ptr %60, align 8, !tbaa !17
  %73 = load ptr, ptr %6, align 8, !tbaa !24
  %74 = tail call i32 @BIO_write(ptr noundef %72, ptr noundef %73, i32 noundef %71) #5
  tail call void @BIO_copy_next_retry(ptr noundef nonnull %0) #5
  %75 = icmp slt i32 %74, 1
  br i1 %75, label %76, label %78

76:                                               ; preds = %.lr.ph
  %77 = sext i32 %74 to i64
  br label %.thread

78:                                               ; preds = %.lr.ph
  %79 = load i32, ptr %64, align 4, !tbaa !23
  %80 = icmp slt i32 %74, %79
  br i1 %80, label %81, label %87

81:                                               ; preds = %78
  %82 = load ptr, ptr %6, align 8, !tbaa !24
  %83 = zext nneg i32 %74 to i64
  %84 = getelementptr inbounds nuw i8, ptr %82, i64 %83
  %85 = sub nsw i32 %79, %74
  %86 = sext i32 %85 to i64
  tail call void @llvm.memmove.p0.p0.i64(ptr align 1 %82, ptr nonnull align 1 %84, i64 %86, i1 false)
  %.pre = load i32, ptr %64, align 4, !tbaa !23
  br label %87

87:                                               ; preds = %81, %78
  %88 = phi i32 [ %.pre, %81 ], [ %79, %78 ]
  %89 = sub nsw i32 %88, %74
  store i32 %89, ptr %64, align 4, !tbaa !23
  tail call void @BIO_clear_flags(ptr noundef nonnull %0, i32 noundef 15) #5
  %90 = load i32, ptr %64, align 4, !tbaa !23
  %91 = icmp sgt i32 %90, 0
  br i1 %91, label %.lr.ph, label %._crit_edge

._crit_edge:                                      ; preds = %87, %.preheader
  store i32 0, ptr %64, align 4, !tbaa !23
  %92 = load ptr, ptr %60, align 8, !tbaa !17
  %93 = tail call i64 @BIO_ctrl(ptr noundef %92, i32 noundef 11, i64 noundef %2, ptr noundef %3) #5
  tail call void @BIO_copy_next_retry(ptr noundef nonnull %0) #5
  br label %.thread

94:                                               ; preds = %4
  %95 = getelementptr inbounds nuw i8, ptr %6, i64 8
  %96 = load i32, ptr %95, align 8, !tbaa !21
  %97 = sext i32 %96 to i64
  %98 = tail call i64 @BIO_int_ctrl(ptr noundef %3, i32 noundef 117, i64 noundef %97, i32 noundef 1) #5
  %99 = icmp sgt i64 %98, 0
  %spec.select = zext i1 %99 to i64
  br label %.thread

100:                                              ; preds = %4
  %101 = getelementptr inbounds nuw i8, ptr %0, i64 72
  %102 = load ptr, ptr %101, align 8, !tbaa !17
  %103 = icmp eq ptr %102, null
  br i1 %103, label %.thread, label %104

104:                                              ; preds = %100
  %105 = tail call i64 @BIO_ctrl(ptr noundef nonnull %102, i32 noundef %1, i64 noundef %2, ptr noundef %3) #5
  br label %.thread

.thread:                                          ; preds = %31, %34, %94, %12, %14, %56, %69, %._crit_edge, %104, %27, %18, %47, %41, %100, %59, %52, %37, %29, %23, %7, %76
  %.0 = phi i64 [ %77, %76 ], [ 0, %7 ], [ 0, %23 ], [ 0, %29 ], [ 0, %37 ], [ 0, %52 ], [ 0, %59 ], [ 0, %100 ], [ %105, %104 ], [ %70, %69 ], [ %93, %._crit_edge ], [ %58, %56 ], [ 1, %47 ], [ 1, %41 ], [ %28, %27 ], [ %21, %18 ], [ %17, %14 ], [ %13, %12 ], [ %spec.select, %94 ], [ 1, %34 ], [ 1, %31 ]
  ret i64 %.0
}